target datalayout = "e-m:e-p270:32:32-p271:32:32-p272:64:64-i64:64-i128:128-f80:128-n8:16:32:64-S128"
target triple = "x86_64-pc-linux-gnu"

%struct._typeobject = type { %struct.PyVarObject, ptr, i64, i64, ptr, i64, ptr, ptr, ptr, ptr, ptr, ptr, ptr, ptr, ptr, ptr, ptr, ptr, ptr, i64, ptr, ptr, ptr, ptr, i64, ptr, ptr, ptr, ptr, ptr, ptr, ptr, ptr, ptr, i64, ptr, ptr, ptr, ptr, ptr, ptr, ptr, ptr, ptr, ptr, ptr, i32, ptr, ptr, i8, i16 }
%struct.PyVarObject = type { %struct._object, i64 }
%struct._object = type { %union.anon, ptr }
%union.anon = type { i64 }
%struct.anon.0 = type { i32, i32 }

@_Py_NoneStruct = external global %struct._object, align 8
@PyExc_TypeError = external global ptr, align 8
@.str.22 = private unnamed_addr constant [69 x i8] c"calling %R should have returned an instance of BaseException, not %s\00", align 1
@_Py_tss_tstate = external thread_local global ptr, align 8

; Function Attrs: inlinehint nounwind uwtable
define internal i64 @_PyVectorcall_NARGS(i64 noundef %0) #2 {
  %2 = alloca i64, align 8
  store i64 %0, ptr %2, align 8, !tbaa !47
  %3 = load i64, ptr %2, align 8, !tbaa !47
  %4 = and i64 %3, 9223372036854775807
  ret i64 %4
}

; Function Attrs: inlinehint nounwind uwtable
define internal ptr @_PyVectorcall_FunctionInline(ptr noundef %0) #2 {
  %2 = alloca ptr, align 8
  %3 = alloca ptr, align 8
  %4 = alloca ptr, align 8
  %5 = alloca i32, align 4
  %6 = alloca i64, align 8
  %7 = alloca ptr, align 8
  store ptr %0, ptr %3, align 8, !tbaa !9
  call void @llvm.lifetime.start.p0(i64 8, ptr %4) #13
  %8 = load ptr, ptr %3, align 8, !tbaa !9
  %9 = call ptr @_Py_TYPE(ptr noundef %8)
  store ptr %9, ptr %4, align 8, !tbaa !37
  %10 = load ptr, ptr %4, align 8, !tbaa !37
  %11 = call i32 @PyType_HasFeature(ptr noundef %10, i64 noundef 2048)
  %12 = icmp ne i32 %11, 0
  br i1 %12, label %14, label %13

13:                                               ; preds = %1
  store ptr null, ptr %2, align 8
  store i32 1, ptr %5, align 4
  br label %22

14:                                               ; preds = %1
  call void @llvm.lifetime.start.p0(i64 8, ptr %6) #13
  %15 = load ptr, ptr %4, align 8, !tbaa !37
  %16 = getelementptr inbounds nuw %struct._typeobject, ptr %15, i32 0, i32 5
  %17 = load i64, ptr %16, align 8, !tbaa !67
  store i64 %17, ptr %6, align 8, !tbaa !47
  call void @llvm.lifetime.start.p0(i64 8, ptr %7) #13
  %18 = load ptr, ptr %3, align 8, !tbaa !9
  %19 = load i64, ptr %6, align 8, !tbaa !47
  %20 = getelementptr i8, ptr %18, i64 %19
  call void @llvm.memcpy.p0.p0.i64(ptr align 8 %7, ptr align 1 %20, i64 8, i1 false)
  %21 = load ptr, ptr %7, align 8, !tbaa !66
  store ptr %21, ptr %2, align 8
  store i32 1, ptr %5, align 4
  call void @llvm.lifetime.end.p0(i64 8, ptr %7) #13
  call void @llvm.lifetime.end.p0(i64 8, ptr %6) #13
  br label %22

22:                                               ; preds = %14, %13
  call void @llvm.lifetime.end.p0(i64 8, ptr %4) #13
  %23 = load ptr, ptr %2, align 8
  ret ptr %23
}

; Function Attrs: alwaysinline nounwind uwtable
define internal i32 @_Py_IsImmortal(ptr noundef %0) #3 {
  %2 = alloca ptr, align 8
  store ptr %0, ptr %2, align 8, !tbaa !9
  %3 = load ptr, ptr %2, align 8, !tbaa !9
  %4 = getelementptr inbounds nuw %struct._object, ptr %3, i32 0, i32 0
  %5 = getelementptr inbounds nuw %struct.anon.0, ptr %4, i32 0, i32 0
  %6 = load i32, ptr %5, align 8, !tbaa !36
  %7 = icmp slt i32 %6, 0
  %8 = zext i1 %7 to i32
  ret i32 %8
}

; Function Attrs: inlinehint nounwind uwtable
define internal ptr @_PyObject_VectorcallTstate(ptr noundef %0, ptr noundef %1, ptr noundef %2, i64 noundef %3, ptr noundef %4) #2 {
  %6 = alloca ptr, align 8
  %7 = alloca ptr, align 8
  %8 = alloca ptr, align 8
  %9 = alloca ptr, align 8
  %10 = alloca i64, align 8
  %11 = alloca ptr, align 8
  %12 = alloca ptr, align 8
  %13 = alloca ptr, align 8
  %14 = alloca i64, align 8
  %15 = alloca i32, align 4
  store ptr %0, ptr %7, align 8, !tbaa !4
  store ptr %1, ptr %8, align 8, !tbaa !9
  store ptr %2, ptr %9, align 8, !tbaa !35
  store i64 %3, ptr %10, align 8, !tbaa !47
  store ptr %4, ptr %11, align 8, !tbaa !9
  call void @llvm.lifetime.start.p0(i64 8, ptr %12) #13
  call void @llvm.lifetime.start.p0(i64 8, ptr %13) #13
  %16 = load ptr, ptr %8, align 8, !tbaa !9
  %17 = call ptr @_PyVectorcall_FunctionInline(ptr noundef %16)
  store ptr %17, ptr %12, align 8, !tbaa !66
  %18 = load ptr, ptr %12, align 8, !tbaa !66
  %19 = icmp eq ptr %18, null
  br i1 %19, label %20, label %29

20:                                               ; preds = %5
  call void @llvm.lifetime.start.p0(i64 8, ptr %14) #13
  %21 = load i64, ptr %10, align 8, !tbaa !47
  %22 = call i64 @_PyVectorcall_NARGS(i64 noundef %21)
  store i64 %22, ptr %14, align 8, !tbaa !47
  %23 = load ptr, ptr %7, align 8, !tbaa !4
  %24 = load ptr, ptr %8, align 8, !tbaa !9
  %25 = load ptr, ptr %9, align 8, !tbaa !35
  %26 = load i64, ptr %14, align 8, !tbaa !47
  %27 = load ptr, ptr %11, align 8, !tbaa !9
  %28 = call ptr @_PyObject_MakeTpCall(ptr noundef %23, ptr noundef %24, ptr noundef %25, i64 noundef %26, ptr noundef %27)
  store ptr %28, ptr %6, align 8
  store i32 1, ptr %15, align 4
  call void @llvm.lifetime.end.p0(i64 8, ptr %14) #13
  br label %40

29:                                               ; preds = %5
  %30 = load ptr, ptr %12, align 8, !tbaa !66
  %31 = load ptr, ptr %8, align 8, !tbaa !9
  %32 = load ptr, ptr %9, align 8, !tbaa !35
  %33 = load i64, ptr %10, align 8, !tbaa !47
  %34 = load ptr, ptr %11, align 8, !tbaa !9
  %35 = call ptr %30(ptr noundef %31, ptr noundef %32, i64 noundef %33, ptr noundef %34)
  store ptr %35, ptr %13, align 8, !tbaa !9
  %36 = load ptr, ptr %7, align 8, !tbaa !4
  %37 = load ptr, ptr %8, align 8, !tbaa !9
  %38 = load ptr, ptr %13, align 8, !tbaa !9
  %39 = call ptr @_Py_CheckFunctionResult(ptr noundef %36, ptr noundef %37, ptr noundef %38, ptr noundef null)
  store ptr %39, ptr %6, align 8
  store i32 1, ptr %15, align 4
  br label %40

40:                                               ; preds = %29, %20
  call void @llvm.lifetime.end.p0(i64 8, ptr %13) #13
  call void @llvm.lifetime.end.p0(i64 8, ptr %12) #13
  %41 = load ptr, ptr %6, align 8
  ret ptr %41
}

; Function Attrs: inlinehint nounwind uwtable
define internal ptr @_PyThreadState_GET() #2 {
  %1 = call align 8 ptr @llvm.threadlocal.address.p0(ptr align 8 @_Py_tss_tstate)
  %2 = load ptr, ptr %1, align 8, !tbaa !4
  ret ptr %2
}

; Function Attrs: alwaysinline nounwind uwtable
define internal void @Py_DECREF(ptr noundef %0) #3 {
  %2 = alloca ptr, align 8
  store ptr %0, ptr %2, align 8, !tbaa !9
  %3 = load ptr, ptr %2, align 8, !tbaa !9
  %4 = call i32 @_Py_IsImmortal(ptr noundef %3)
  %5 = icmp ne i32 %4, 0
  br i1 %5, label %6, label %7

6:                                                ; preds = %1
  br label %16

7:                                                ; preds = %1
  %8 = load ptr, ptr %2, align 8, !tbaa !9
  %9 = getelementptr inbounds nuw %struct._object, ptr %8, i32 0, i32 0
  %10 = getelementptr inbounds nuw %struct.anon.0, ptr %9, i32 0, i32 0
  %11 = load i32, ptr %10, align 8, !tbaa !36
  %12 = add i32 %11, -1
  store i32 %12, ptr %10, align 8, !tbaa !36
  %13 = icmp eq i32 %12, 0
  br i1 %13, label %14, label %16

14:                                               ; preds = %7
  %15 = load ptr, ptr %2, align 8, !tbaa !9
  call void @_Py_Dealloc(ptr noundef %15)
  br label %16

16:                                               ; preds = %6, %14, %7
  ret void
}

; Function Attrs: inlinehint nounwind uwtable
define internal i32 @PyType_HasFeature(ptr noundef %0, i64 noundef %1) #2 {
  %3 = alloca ptr, align 8
  %4 = alloca i64, align 8
  %5 = alloca i64, align 8
  store ptr %0, ptr %3, align 8, !tbaa !37
  store i64 %1, ptr %4, align 8, !tbaa !47
  call void @llvm.lifetime.start.p0(i64 8, ptr %5) #13
  %6 = load ptr, ptr %3, align 8, !tbaa !37
  %7 = getelementptr inbounds nuw %struct._typeobject, ptr %6, i32 0, i32 19
  %8 = load i64, ptr %7, align 8, !tbaa !48
  store i64 %8, ptr %5, align 8, !tbaa !47
  %9 = load i64, ptr %5, align 8, !tbaa !47
  %10 = load i64, ptr %4, align 8, !tbaa !47
  %11 = and i64 %9, %10
  %12 = icmp ne i64 %11, 0
  %13 = zext i1 %12 to i32
  call void @llvm.lifetime.end.p0(i64 8, ptr %5) #13
  ret i32 %13
}

; Function Attrs: inlinehint nounwind uwtable
define internal ptr @_Py_TYPE(ptr noundef %0) #2 {
  %2 = alloca ptr, align 8
  store ptr %0, ptr %2, align 8, !tbaa !9
  %3 = load ptr, ptr %2, align 8, !tbaa !9
  %4 = getelementptr inbounds nuw %struct._object, ptr %3, i32 0, i32 1
  %5 = load ptr, ptr %4, align 8, !tbaa !26
  ret ptr %5
}

; Function Attrs: inlinehint nounwind uwtable
define internal ptr @_PyObject_CallNoArgs(ptr noundef %0) #2 {
  %2 = alloca ptr, align 8
  %3 = alloca ptr, align 8
  store ptr %0, ptr %2, align 8, !tbaa !9
  call void @llvm.lifetime.start.p0(i64 8, ptr %3) #13
  %4 = call ptr @_PyThreadState_GET()
  store ptr %4, ptr %3, align 8, !tbaa !4
  %5 = load ptr, ptr %3, align 8, !tbaa !4
  %6 = load ptr, ptr %2, align 8, !tbaa !9
  %7 = call ptr @_PyObject_VectorcallTstate(ptr noundef %5, ptr noundef %6, ptr noundef null, i64 noundef 0, ptr noundef null)
  call void @llvm.lifetime.end.p0(i64 8, ptr %3) #13
  ret ptr %7
}

; Function Attrs: nounwind uwtable
define internal ptr @_PyErr_CreateException(ptr noundef %0, ptr noundef %1) #0 {
  %3 = alloca ptr, align 8
  %4 = alloca ptr, align 8
  %5 = alloca ptr, align 8
  %6 = alloca ptr, align 8
  %7 = alloca ptr, align 8
  store ptr %0, ptr %3, align 8, !tbaa !9
  store ptr %1, ptr %4, align 8, !tbaa !9
  call void @llvm.lifetime.start.p0(i64 8, ptr %5) #13
  %8 = load ptr, ptr %4, align 8, !tbaa !9
  %9 = icmp eq ptr %8, null
  br i1 %9, label %13, label %10

10:                                               ; preds = %2
  %11 = load ptr, ptr %4, align 8, !tbaa !9
  %12 = icmp eq ptr %11, @_Py_NoneStruct
  br i1 %12, label %13, label %16

13:                                               ; preds = %10, %2
  %14 = load ptr, ptr %3, align 8, !tbaa !9
  %15 = call ptr @_PyObject_CallNoArgs(ptr noundef %14)
  store ptr %15, ptr %5, align 8, !tbaa !9
  br label %30

16:                                               ; preds = %10
  %17 = load ptr, ptr %4, align 8, !tbaa !9
  %18 = call ptr @_Py_TYPE(ptr noundef %17)
  %19 = call i32 @PyType_HasFeature(ptr noundef %18, i64 noundef 67108864)
  %20 = icmp ne i32 %19, 0
  br i1 %20, label %21, label %25

21:                                               ; preds = %16
  %22 = load ptr, ptr %3, align 8, !tbaa !9
  %23 = load ptr, ptr %4, align 8, !tbaa !9
  %24 = call ptr @PyObject_Call(ptr noundef %22, ptr noundef %23, ptr noundef null)
  store ptr %24, ptr %5, align 8, !tbaa !9
  br label %29

25:                                               ; preds = %16
  %26 = load ptr, ptr %3, align 8, !tbaa !9
  %27 = load ptr, ptr %4, align 8, !tbaa !9
  %28 = call ptr @PyObject_CallOneArg(ptr noundef %26, ptr noundef %27)
  store ptr %28, ptr %5, align 8, !tbaa !9
  br label %29

29:                                               ; preds = %25, %21
  br label %30

30:                                               ; preds = %29, %13
  %31 = load ptr, ptr %5, align 8, !tbaa !9
  %32 = icmp ne ptr %31, null
  br i1 %32, label %33, label %57

33:                                               ; preds = %30
  %34 = load ptr, ptr %5, align 8, !tbaa !9
  %35 = call ptr @_Py_TYPE(ptr noundef %34)
  %36 = call i32 @PyType_HasFeature(ptr noundef %35, i64 noundef 1073741824)
  %37 = icmp ne i32 %36, 0
  br i1 %37, label %57, label %38

38:                                               ; preds = %33
  %39 = load ptr, ptr @PyExc_TypeError, align 8, !tbaa !9
  %40 = load ptr, ptr %3, align 8, !tbaa !9
  %41 = load ptr, ptr %5, align 8, !tbaa !9
  %42 = call ptr @_Py_TYPE(ptr noundef %41)
  %43 = getelementptr inbounds nuw %struct._typeobject, ptr %42, i32 0, i32 1
  %44 = load ptr, ptr %43, align 8, !tbaa !27
  %45 = call ptr (ptr, ptr, ...) @PyErr_Format(ptr noundef %39, ptr noundef @.str.22, ptr noundef %40, ptr noundef %44)
  br label %46

46:                                               ; preds = %38
  call void @llvm.lifetime.start.p0(i64 8, ptr %6) #13
  store ptr %5, ptr %6, align 8, !tbaa !35
  call void @llvm.lifetime.start.p0(i64 8, ptr %7) #13
  %47 = load ptr, ptr %6, align 8, !tbaa !35
  %48 = load ptr, ptr %47, align 8, !tbaa !9
  store ptr %48, ptr %7, align 8, !tbaa !9
  %49 = load ptr, ptr %7, align 8, !tbaa !9
  %50 = icmp ne ptr %49, null
  br i1 %50, label %51, label %54

51:                                               ; preds = %46
  %52 = load ptr, ptr %6, align 8, !tbaa !35
  store ptr null, ptr %52, align 8, !tbaa !9
  %53 = load ptr, ptr %7, align 8, !tbaa !9
  call void @Py_DECREF(ptr noundef %53)
  br label %54

54:                                               ; preds = %51, %46
  call void @llvm.lifetime.end.p0(i64 8, ptr %7) #13
  call void @llvm.lifetime.end.p0(i64 8, ptr %6) #13
  br label %55

55:                                               ; preds = %54
  br label %56

56:                                               ; preds = %55
  br label %57

57:                                               ; preds = %56, %33, %30
  %58 = load ptr, ptr %5, align 8, !tbaa !9
  call void @llvm.lifetime.end.p0(i64 8, ptr %5) #13
  ret ptr %58
}