; Function Attrs: nounwind uwtable
define internal fastcc ptr @_PyErr_CreateException(ptr noundef %0, ptr noundef %1) unnamed_addr #0 {
  %3 = icmp eq ptr %1, null
  %4 = icmp eq ptr %1, @_Py_NoneStruct
  %or.cond = or i1 %3, %4
  br i1 %or.cond, label %5, label %19

5:                                                ; preds = %2
  %6 = tail call align 8 ptr @llvm.threadlocal.address.p0(ptr align 8 @_Py_tss_tstate)
  %7 = load ptr, ptr %6, align 8, !tbaa !25
  %8 = getelementptr i8, ptr %0, i64 8
  %.val.i.i.i = load ptr, ptr %8, align 8, !tbaa !21
  %9 = getelementptr i8, ptr %.val.i.i.i, i64 168
  %.val6.i.i.i = load i64, ptr %9, align 8, !tbaa !28
  %10 = and i64 %.val6.i.i.i, 2048
  %.not.i.i.i = icmp eq i64 %10, 0
  br i1 %.not.i.i.i, label %_PyVectorcall_FunctionInline.exit.thread.i.i, label %_PyVectorcall_FunctionInline.exit.i.i

_PyVectorcall_FunctionInline.exit.i.i:            ; preds = %5
  %11 = getelementptr inbounds nuw i8, ptr %.val.i.i.i, i64 56
  %12 = load i64, ptr %11, align 8, !tbaa !36
  %13 = getelementptr i8, ptr %0, i64 %12
  %.0.copyload.i.i.i = load ptr, ptr %13, align 1
  %14 = icmp eq ptr %.0.copyload.i.i.i, null
  br i1 %14, label %_PyVectorcall_FunctionInline.exit.thread.i.i, label %16

_PyVectorcall_FunctionInline.exit.thread.i.i:     ; preds = %_PyVectorcall_FunctionInline.exit.i.i, %5
  %15 = tail call ptr @_PyObject_MakeTpCall(ptr noundef %7, ptr noundef nonnull %0, ptr noundef null, i64 noundef 0, ptr noundef null) #17
  br label %_PyObject_CallNoArgs.exit

16:                                               ; preds = %_PyVectorcall_FunctionInline.exit.i.i
  %17 = tail call ptr %.0.copyload.i.i.i(ptr noundef nonnull %0, ptr noundef null, i64 noundef 0, ptr noundef null) #17
  %18 = tail call ptr @_Py_CheckFunctionResult(ptr noundef %7, ptr noundef nonnull %0, ptr noundef %17, ptr noundef null) #17
  br label %_PyObject_CallNoArgs.exit

19:                                               ; preds = %2
  %20 = getelementptr i8, ptr %1, i64 8
  %.val = load ptr, ptr %20, align 8, !tbaa !21
  %21 = getelementptr i8, ptr %.val, i64 168
  %.val22 = load i64, ptr %21, align 8, !tbaa !28
  %22 = and i64 %.val22, 67108864
  %.not = icmp eq i64 %22, 0
  br i1 %.not, label %25, label %23

23:                                               ; preds = %19
  %24 = tail call ptr @PyObject_Call(ptr noundef %0, ptr noundef nonnull %1, ptr noundef null) #17
  br label %_PyObject_CallNoArgs.exit

25:                                               ; preds = %19
  %26 = tail call ptr @PyObject_CallOneArg(ptr noundef %0, ptr noundef nonnull %1) #17
  br label %_PyObject_CallNoArgs.exit

_PyObject_CallNoArgs.exit:                        ; preds = %16, %_PyVectorcall_FunctionInline.exit.thread.i.i, %23, %25
  %.0 = phi ptr [ %24, %23 ], [ %26, %25 ], [ %15, %_PyVectorcall_FunctionInline.exit.thread.i.i ], [ %18, %16 ]
  %.not19 = icmp eq ptr %.0, null
  br i1 %.not19, label %Py_DECREF.exit, label %27

27:                                               ; preds = %_PyObject_CallNoArgs.exit
  %28 = getelementptr i8, ptr %.0, i64 8
  %.0.val21 = load ptr, ptr %28, align 8, !tbaa !21
  %29 = getelementptr i8, ptr %.0.val21, i64 168
  %.val23 = load i64, ptr %29, align 8, !tbaa !28
  %30 = and i64 %.val23, 1073741824
  %.not20 = icmp eq i64 %30, 0
  br i1 %.not20, label %31, label %Py_DECREF.exit

31:                                               ; preds = %27
  %32 = load ptr, ptr @PyExc_TypeError, align 8, !tbaa !24
  %33 = getelementptr inbounds nuw i8, ptr %.0.val21, i64 24
  %34 = load ptr, ptr %33, align 8, !tbaa !37
  %35 = tail call ptr (ptr, ptr, ...) @PyErr_Format(ptr noundef %32, ptr noundef nonnull @.str.22, ptr noundef %0, ptr noundef %34)
  %36 = load i32, ptr %.0, align 8, !tbaa !20
  %.not.i = icmp sgt i32 %36, -1
  br i1 %.not.i, label %37, label %Py_DECREF.exit

37:                                               ; preds = %31
  %38 = add nsw i32 %36, -1
  store i32 %38, ptr %.0, align 8, !tbaa !20
  %39 = icmp eq i32 %38, 0
  br i1 %39, label %40, label %Py_DECREF.exit

40:                                               ; preds = %37
  tail call void @_Py_Dealloc(ptr noundef nonnull %.0) #17
  br label %Py_DECREF.exit

Py_DECREF.exit:                                   ; preds = %40, %37, %31, %27, %_PyObject_CallNoArgs.exit
  %.1 = phi ptr [ %.0, %27 ], [ null, %_PyObject_CallNoArgs.exit ], [ null, %31 ], [ null, %37 ], [ null, %40 ]
  ret ptr %.1
}